; Function Attrs: null_pointer_is_valid sspstrong uwtable
define hidden ptr @nvme_lookup_data_tr_pkt(ptr noundef readonly captures(none) %0, i32 noundef %1, i32 noundef %2) local_unnamed_addr #0 {
  %4 = alloca i32, align 4
  %5 = alloca i32, align 4
  %6 = alloca [3 x %struct._wmem_tree_key_t], align 16
  store i32 %1, ptr %4, align 4
  store i32 %2, ptr %5, align 4
  call void @llvm.lifetime.start.p0(i64 48, ptr nonnull %6) #10
  %.not = icmp eq i32 %1, 0
  br i1 %.not, label %nvme_build_done_frame_key.exit, label %7

7:                                                ; preds = %3
  %.0.i.sroa.gep = getelementptr inbounds nuw i8, ptr %6, i64 16
  store i32 1, ptr %6, align 16
  %8 = getelementptr inbounds nuw i8, ptr %6, i64 8
  store ptr %4, ptr %8, align 8
  br label %nvme_build_done_frame_key.exit

nvme_build_done_frame_key.exit:                   ; preds = %3, %7
  %.0.i.sroa.phi = phi ptr [ %.0.i.sroa.gep, %7 ], [ %6, %3 ]
  store i32 1, ptr %.0.i.sroa.phi, align 8
  %9 = getelementptr inbounds nuw i8, ptr %.0.i.sroa.phi, i64 8
  store ptr %5, ptr %9, align 8
  %10 = getelementptr i8, ptr %.0.i.sroa.phi, i64 16
  store i32 0, ptr %10, align 8
  %11 = getelementptr i8, ptr %.0.i.sroa.phi, i64 24
  store ptr null, ptr %11, align 8
  %12 = getelementptr inbounds nuw i8, ptr %0, i64 24
  %13 = load ptr, ptr %12, align 8
  %14 = call ptr @wmem_tree_lookup32_array(ptr noundef %13, ptr noundef nonnull %6)
  call void @llvm.lifetime.end.p0(i64 48, ptr nonnull %6) #10
  ret ptr %14
}